   1              		.cpu cortex-m4
   2              		.eabi_attribute 27, 1
   3              		.eabi_attribute 28, 1
   4              		.eabi_attribute 20, 1
   5              		.eabi_attribute 21, 1
   6              		.eabi_attribute 23, 3
   7              		.eabi_attribute 24, 1
   8              		.eabi_attribute 25, 1
   9              		.eabi_attribute 26, 1
  10              		.eabi_attribute 30, 6
  11              		.eabi_attribute 34, 1
  12              		.eabi_attribute 18, 4
  13              		.file	"main.c"
  14              		.text
  15              	.Ltext0:
  16              		.cfi_sections	.debug_frame
  17              		.section	.text.main,"ax",%progbits
  18              		.align	1
  19              		.global	main
  20              		.syntax unified
  21              		.thumb
  22              		.thumb_func
  23              		.fpu fpv4-sp-d16
  25              	main:
  26              	.LFB123:
  27              		.file 1 "../source/main.c"
   1:../source/main.c **** /*
   2:../source/main.c ****  * main.c
   3:../source/main.c ****  *
   4:../source/main.c ****  * Simple UART test program
   5:../source/main.c ****  *
   6:../source/main.c ****  */
   7:../source/main.c **** 
   8:../source/main.c **** #include "hardware.h"
   9:../source/main.c **** #include "UART.h"
  10:../source/main.c **** 
  11:../source/main.c **** #define __FOREVER__ 	for(;;)
  12:../source/main.c **** 
  13:../source/main.c **** int main (void)
  14:../source/main.c **** {
  28              		.loc 1 14 0
  29              		.cfi_startproc
  30              		@ args = 0, pretend = 0, frame = 8
  31              		@ frame_needed = 1, uses_anonymous_args = 0
  32 0000 80B5     		push	{r7, lr}
  33              		.cfi_def_cfa_offset 8
  34              		.cfi_offset 7, -8
  35              		.cfi_offset 14, -4
  36 0002 82B0     		sub	sp, sp, #8
  37              		.cfi_def_cfa_offset 16
  38 0004 00AF     		add	r7, sp, #0
  39              		.cfi_def_cfa_register 7
  15:../source/main.c **** 
  16:../source/main.c **** 
  17:../source/main.c **** unsigned char uart_data;
  18:../source/main.c **** 
  19:../source/main.c ****  	 	 	hw_Init ();
  40              		.loc 1 19 0
  41 0006 FFF7FEFF 		bl	hw_Init
  20:../source/main.c **** 			UART_Init();
  42              		.loc 1 20 0
  43 000a FFF7FEFF 		bl	UART_Init
  21:../source/main.c **** 			UART_Send_Data('A');
  44              		.loc 1 21 0
  45 000e 4120     		movs	r0, #65
  46 0010 FFF7FEFF 		bl	UART_Send_Data
  22:../source/main.c **** 			UART_Send_Data('B');
  47              		.loc 1 22 0
  48 0014 4220     		movs	r0, #66
  49 0016 FFF7FEFF 		bl	UART_Send_Data
  23:../source/main.c **** 			UART_Send_Data('C');
  50              		.loc 1 23 0
  51 001a 4320     		movs	r0, #67
  52 001c FFF7FEFF 		bl	UART_Send_Data
  24:../source/main.c **** 
  25:../source/main.c **** 			// Enable interrupts
  26:../source/main.c **** 			hw_EnableInterrupts();
  53              		.loc 1 26 0
  54 0020 FFF7FEFF 		bl	hw_EnableInterrupts
  55              	.L2:
  27:../source/main.c **** 
  28:../source/main.c **** 			__FOREVER__
  29:../source/main.c **** 			{
  30:../source/main.c **** 					uart_data=UART_Recieve_Data();
  56              		.loc 1 30 0 discriminator 1
  57 0024 FFF7FEFF 		bl	UART_Recieve_Data
  58 0028 0346     		mov	r3, r0
  59 002a FB71     		strb	r3, [r7, #7]
  31:../source/main.c **** 					UART_Send_Data(uart_data+1);
  60              		.loc 1 31 0 discriminator 1
  61 002c FB79     		ldrb	r3, [r7, #7]
  62 002e 0133     		adds	r3, r3, #1
  63 0030 DBB2     		uxtb	r3, r3
  64 0032 1846     		mov	r0, r3
  65 0034 FFF7FEFF 		bl	UART_Send_Data
  30:../source/main.c **** 					UART_Send_Data(uart_data+1);
  66              		.loc 1 30 0 discriminator 1
  67 0038 F4E7     		b	.L2
  68              		.cfi_endproc
  69              	.LFE123:
  71              		.text
  72              	.Letext0:
  73              		.file 2 "c:\\nxp\\mcuxpressoide_10.2.0_759\\ide\\tools\\redlib\\include\\sys\\libconfig-arm.h"
  74              		.file 3 "c:\\nxp\\mcuxpressoide_10.2.0_759\\ide\\tools\\redlib\\include\\stdint.h"
  75              		.file 4 "C:\\Users\\lucia\\OneDrive\\Documents\\2C2023\\Labo_de_Micros\\repo\\Micros-Grupo-5\\TPS\
  76              		.file 5 "C:\\Users\\lucia\\OneDrive\\Documents\\2C2023\\Labo_de_Micros\\repo\\Micros-Grupo-5\\TPS\