   1              		.cpu cortex-m4
   2              		.eabi_attribute 27, 1
   3              		.eabi_attribute 28, 1
   4              		.eabi_attribute 20, 1
   5              		.eabi_attribute 21, 1
   6              		.eabi_attribute 23, 3
   7              		.eabi_attribute 24, 1
   8              		.eabi_attribute 25, 1
   9              		.eabi_attribute 26, 1
  10              		.eabi_attribute 30, 6
  11              		.eabi_attribute 34, 1
  12              		.eabi_attribute 18, 4
  13              		.file	"main.c"
  14              		.text
  15              	.Ltext0:
  16              		.cfi_sections	.debug_frame
  17              		.section	.rodata
  18              		.align	2
  19              	.LC0:
  20 0000 0501     		.short	261
  21 0002 08       		.byte	8
  22 0003 01       		.byte	1
  23 0004 02       		.byte	2
  24 0005 03       		.byte	3
  25 0006 04       		.byte	4
  26 0007 05       		.byte	5
  27 0008 06       		.byte	6
  28 0009 07       		.byte	7
  29 000a 08       		.byte	8
  30 000b 00       		.space	1
  31              		.section	.text.main,"ax",%progbits
  32              		.align	1
  33              		.global	main
  34              		.syntax unified
  35              		.thumb
  36              		.thumb_func
  37              		.fpu fpv4-sp-d16
  39              	main:
  40              	.LFB123:
  41              		.file 1 "../source/main.c"
   1:../source/main.c **** /*
   2:../source/main.c ****  * main.c
   3:../source/main.c ****  *
   4:../source/main.c ****  *  Created on: May 1, 2015
   5:../source/main.c ****  *      Author: Juan Pablo VEGA - Laboratorio de Microprocesadores
   6:../source/main.c ****  */
   7:../source/main.c **** 
   8:../source/main.c **** #include "hardware.h"
   9:../source/main.c **** #include "UART.h"
  10:../source/main.c **** #include "SPI.h"
  11:../source/main.c **** #include "CAN_SPI.h"
  12:../source/main.c **** 
  13:../source/main.c **** #define __FOREVER__ 	for(;;)
  14:../source/main.c **** 
  15:../source/main.c **** int main (void)
  16:../source/main.c **** {
  42              		.loc 1 16 0
  43              		.cfi_startproc
  44              		@ args = 0, pretend = 0, frame = 24
  45              		@ frame_needed = 1, uses_anonymous_args = 0
  46 0000 80B5     		push	{r7, lr}
  47              		.cfi_def_cfa_offset 8
  48              		.cfi_offset 7, -8
  49              		.cfi_offset 14, -4
  50 0002 86B0     		sub	sp, sp, #24
  51              		.cfi_def_cfa_offset 32
  52 0004 00AF     		add	r7, sp, #0
  53              		.cfi_def_cfa_register 7
  17:../source/main.c **** 	unsigned char uart_data;
  18:../source/main.c **** 
  19:../source/main.c **** 	hw_DisableInterrupts();
  54              		.loc 1 19 0
  55 0006 FFF7FEFF 		bl	hw_DisableInterrupts
  20:../source/main.c **** 	hw_Init ();
  56              		.loc 1 20 0
  57 000a FFF7FEFF 		bl	hw_Init
  21:../source/main.c **** 	UART_Init();
  58              		.loc 1 21 0
  59 000e FFF7FEFF 		bl	UART_Init
  22:../source/main.c **** 	hw_EnableInterrupts();
  60              		.loc 1 22 0
  61 0012 FFF7FEFF 		bl	hw_EnableInterrupts
  23:../source/main.c **** 	CAN_SPI_Init();
  62              		.loc 1 23 0
  63 0016 FFF7FEFF 		bl	CAN_SPI_Init
  24:../source/main.c **** 
  25:../source/main.c **** 	RXB_RAWDATA_t data = {0x105, 8, {0x1, 0x2, 0x3, 0x4, 0x5, 0x6, 0x7, 0x8}};
  64              		.loc 1 25 0
  65 001a 0B4A     		ldr	r2, .L4
  66 001c 07F10C03 		add	r3, r7, #12
  67 0020 07CA     		ldm	r2, {r0, r1, r2}
  68 0022 83E80700 		stm	r3, {r0, r1, r2}
  26:../source/main.c **** 
  27:../source/main.c **** 	CAN_SPI_SendInfo(&data);
  69              		.loc 1 27 0
  70 0026 07F10C03 		add	r3, r7, #12
  71 002a 1846     		mov	r0, r3
  72 002c FFF7FEFF 		bl	CAN_SPI_SendInfo
  28:../source/main.c **** 
  29:../source/main.c **** 	while(!CAN_SPI_Is_Read_Ready());
  73              		.loc 1 29 0
  74 0030 00BF     		nop
  75              	.L2:
  76              		.loc 1 29 0 is_stmt 0 discriminator 1
  77 0032 FFF7FEFF 		bl	CAN_SPI_Is_Read_Ready
  78 0036 0346     		mov	r3, r0
  79 0038 002B     		cmp	r3, #0
  80 003a FAD0     		beq	.L2
  30:../source/main.c **** 	RXB_RAWDATA_t a = CAN_SPI_Get_Data();
  81              		.loc 1 30 0 is_stmt 1
  82 003c 3B46     		mov	r3, r7
  83 003e 1846     		mov	r0, r3
  84 0040 FFF7FEFF 		bl	CAN_SPI_Get_Data
  85              	.L3:
  31:../source/main.c **** 
  32:../source/main.c **** 	// Enable interrupts
  33:../source/main.c **** 
  34:../source/main.c **** 	__FOREVER__
  86              		.loc 1 34 0 discriminator 1
  87 0044 FEE7     		b	.L3
  88              	.L5:
  89 0046 00BF     		.align	2
  90              	.L4:
  91 0048 00000000 		.word	.LC0
  92              		.cfi_endproc
  93              	.LFE123:
  95              		.text
  96              	.Letext0:
  97              		.file 2 "c:\\nxp\\mcuxpressoide_10.2.0_759\\ide\\tools\\redlib\\include\\sys\\libconfig-arm.h"
  98              		.file 3 "c:\\nxp\\mcuxpressoide_10.2.0_759\\ide\\tools\\redlib\\include\\stdint.h"
  99              		.file 4 "C:\\Users\\lucia\\OneDrive\\Documents\\2C2023\\Labo_de_Micros\\repo\\Micros-Grupo-5\\TPS\
 100              		.file 5 "C:\\Users\\lucia\\OneDrive\\Documents\\2C2023\\Labo_de_Micros\\repo\\Micros-Grupo-5\\TPS\
 101              		.file 6 "../source/CAN_SPI.h"