   1              		.cpu cortex-m4
   2              		.eabi_attribute 27, 1
   3              		.eabi_attribute 28, 1
   4              		.eabi_attribute 20, 1
   5              		.eabi_attribute 21, 1
   6              		.eabi_attribute 23, 3
   7              		.eabi_attribute 24, 1
   8              		.eabi_attribute 25, 1
   9              		.eabi_attribute 26, 1
  10              		.eabi_attribute 30, 6
  11              		.eabi_attribute 34, 1
  12              		.eabi_attribute 18, 4
  13              		.file	"queue.c"
  14              		.text
  15              	.Ltext0:
  16              		.cfi_sections	.debug_frame
  17              		.section	.bss.queue,"aw",%nobits
  18              		.align	2
  21              	queue:
  22 0000 00000000 		.space	15
  22      00000000 
  22      00000000 
  22      000000
  23              		.section	.bss.num_Of_Events,"aw",%nobits
  26              	num_Of_Events:
  27 0000 00       		.space	1
  28              		.section	.bss.pin,"aw",%nobits
  29              		.align	2
  32              	pin:
  33 0000 00000000 		.space	4
  34              		.section	.bss.pout,"aw",%nobits
  35              		.align	2
  38              	pout:
  39 0000 00000000 		.space	4
  40              		.section	.text.queue_Init,"ax",%progbits
  41              		.align	1
  42              		.global	queue_Init
  43              		.syntax unified
  44              		.thumb
  45              		.thumb_func
  46              		.fpu fpv4-sp-d16
  48              	queue_Init:
  49              	.LFB123:
  50              		.file 1 "../source/queue.c"
   1:../source/queue.c **** 	/***************************************************************************//**
   2:../source/queue.c ****   @file     App.c
   3:../source/queue.c ****   @brief    Application functions
   4:../source/queue.c ****   @author   Bruno Di Sanzo
   5:../source/queue.c ****  ******************************************************************************/
   6:../source/queue.c **** 
   7:../source/queue.c **** /*******************************************************************************
   8:../source/queue.c ****  * INCLUDE HEADER FILES
   9:../source/queue.c ****  ******************************************************************************/
  10:../source/queue.c **** 
  11:../source/queue.c **** 
  12:../source/queue.c **** #include "queue.h"
  13:../source/queue.c **** 
  14:../source/queue.c **** 
  15:../source/queue.c **** /*******************************************************************************
  16:../source/queue.c ****  * CONSTANT AND MACRO DEFINITIONS USING #DEFINE
  17:../source/queue.c ****  ******************************************************************************/
  18:../source/queue.c **** 
  19:../source/queue.c **** 
  20:../source/queue.c **** #define	MAX_NUMBER_OF_EVENTS	15
  21:../source/queue.c **** #define NONE_EV  0 //TODO
  22:../source/queue.c **** 
  23:../source/queue.c **** static uint8_t queue [MAX_NUMBER_OF_EVENTS];
  24:../source/queue.c **** static uint8_t num_Of_Events = 0;
  25:../source/queue.c **** static uint8_t *pin, *pout;
  26:../source/queue.c **** 
  27:../source/queue.c **** 
  28:../source/queue.c **** /*******************************************************************************
  29:../source/queue.c ****  * FUNCTION PROTOTYPES FOR PRIVATE FUNCTIONS WITH FILE LEVEL SCOPE
  30:../source/queue.c ****  ******************************************************************************/
  31:../source/queue.c **** 
  32:../source/queue.c **** 
  33:../source/queue.c **** /*******************************************************************************
  34:../source/queue.c ****  *******************************************************************************
  35:../source/queue.c ****                         GLOBAL FUNCTION DEFINITIONS
  36:../source/queue.c ****  *******************************************************************************
  37:../source/queue.c ****  ******************************************************************************/
  38:../source/queue.c **** 
  39:../source/queue.c **** /**
  40:../source/queue.c ****  * @brief Initializes the circular queue
  41:../source/queue.c ****  */
  42:../source/queue.c **** void queue_Init (void)
  43:../source/queue.c **** {
  51              		.loc 1 43 0
  52              		.cfi_startproc
  53              		@ args = 0, pretend = 0, frame = 0
  54              		@ frame_needed = 1, uses_anonymous_args = 0
  55              		@ link register save eliminated.
  56 0000 80B4     		push	{r7}
  57              		.cfi_def_cfa_offset 4
  58              		.cfi_offset 7, -4
  59 0002 00AF     		add	r7, sp, #0
  60              		.cfi_def_cfa_register 7
  44:../source/queue.c **** 	pin = queue;
  61              		.loc 1 44 0
  62 0004 074B     		ldr	r3, .L2
  63 0006 084A     		ldr	r2, .L2+4
  64 0008 1A60     		str	r2, [r3]
  45:../source/queue.c **** 	pout = pin;
  65              		.loc 1 45 0
  66 000a 064B     		ldr	r3, .L2
  67 000c 1B68     		ldr	r3, [r3]
  68 000e 074A     		ldr	r2, .L2+8
  69 0010 1360     		str	r3, [r2]
  46:../source/queue.c **** 	num_Of_Events = 0;
  70              		.loc 1 46 0
  71 0012 074B     		ldr	r3, .L2+12
  72 0014 0022     		movs	r2, #0
  73 0016 1A70     		strb	r2, [r3]
  47:../source/queue.c **** }
  74              		.loc 1 47 0
  75 0018 00BF     		nop
  76 001a BD46     		mov	sp, r7
  77              		.cfi_def_cfa_register 13
  78              		@ sp needed
  79 001c 5DF8047B 		ldr	r7, [sp], #4
  80              		.cfi_restore 7
  81              		.cfi_def_cfa_offset 0
  82 0020 7047     		bx	lr
  83              	.L3:
  84 0022 00BF     		.align	2
  85              	.L2:
  86 0024 00000000 		.word	pin
  87 0028 00000000 		.word	queue
  88 002c 00000000 		.word	pout
  89 0030 00000000 		.word	num_Of_Events
  90              		.cfi_endproc
  91              	.LFE123:
  93              		.section	.text.push_Queue_Element,"ax",%progbits
  94              		.align	1
  95              		.global	push_Queue_Element
  96              		.syntax unified
  97              		.thumb
  98              		.thumb_func
  99              		.fpu fpv4-sp-d16
 101              	push_Queue_Element:
 102              	.LFB124:
  48:../source/queue.c **** 
  49:../source/queue.c **** /**
  50:../source/queue.c ****  * @brief Pushes an event to the queue
  51:../source/queue.c ****  * @param event The element to add to the queue
  52:../source/queue.c ****  * @return Number of pending events. Returns value OVERFLOW if the maximun number of events is reac
  53:../source/queue.c ****  */
  54:../source/queue.c **** int8_t push_Queue_Element(uint8_t event)
  55:../source/queue.c **** {
 103              		.loc 1 55 0
 104              		.cfi_startproc
 105              		@ args = 0, pretend = 0, frame = 8
 106              		@ frame_needed = 1, uses_anonymous_args = 0
 107              		@ link register save eliminated.
 108 0000 80B4     		push	{r7}
 109              		.cfi_def_cfa_offset 4
 110              		.cfi_offset 7, -4
 111 0002 83B0     		sub	sp, sp, #12
 112              		.cfi_def_cfa_offset 16
 113 0004 00AF     		add	r7, sp, #0
 114              		.cfi_def_cfa_register 7
 115 0006 0346     		mov	r3, r0
 116 0008 FB71     		strb	r3, [r7, #7]
  56:../source/queue.c **** 	// Check for EventQueue Overflow
  57:../source/queue.c **** 	if (num_Of_Events > MAX_NUMBER_OF_EVENTS-1)
 117              		.loc 1 57 0
 118 000a 124B     		ldr	r3, .L8
 119 000c 1B78     		ldrb	r3, [r3]	@ zero_extendqisi2
 120 000e 0E2B     		cmp	r3, #14
 121 0010 02D9     		bls	.L5
  58:../source/queue.c **** 	{
  59:../source/queue.c **** 		return OVERFLOW;
 122              		.loc 1 59 0
 123 0012 4FF0FF33 		mov	r3, #-1
 124 0016 17E0     		b	.L6
 125              	.L5:
  60:../source/queue.c **** 	}
  61:../source/queue.c **** 
  62:../source/queue.c **** 	*pin++ = event;
 126              		.loc 1 62 0
 127 0018 0F4B     		ldr	r3, .L8+4
 128 001a 1B68     		ldr	r3, [r3]
 129 001c 5A1C     		adds	r2, r3, #1
 130 001e 0E49     		ldr	r1, .L8+4
 131 0020 0A60     		str	r2, [r1]
 132 0022 FA79     		ldrb	r2, [r7, #7]
 133 0024 1A70     		strb	r2, [r3]
  63:../source/queue.c **** 	num_Of_Events++;
 134              		.loc 1 63 0
 135 0026 0B4B     		ldr	r3, .L8
 136 0028 1B78     		ldrb	r3, [r3]	@ zero_extendqisi2
 137 002a 0133     		adds	r3, r3, #1
 138 002c DAB2     		uxtb	r2, r3
 139 002e 094B     		ldr	r3, .L8
 140 0030 1A70     		strb	r2, [r3]
  64:../source/queue.c **** 
  65:../source/queue.c **** 	// Return pointer to the beginning if necessary
  66:../source/queue.c **** 	if (pin == MAX_NUMBER_OF_EVENTS + queue)
 141              		.loc 1 66 0
 142 0032 094B     		ldr	r3, .L8+4
 143 0034 1B68     		ldr	r3, [r3]
 144 0036 094A     		ldr	r2, .L8+8
 145 0038 9342     		cmp	r3, r2
 146 003a 02D1     		bne	.L7
  67:../source/queue.c **** 	{
  68:../source/queue.c **** 		pin = queue;
 147              		.loc 1 68 0
 148 003c 064B     		ldr	r3, .L8+4
 149 003e 084A     		ldr	r2, .L8+12
 150 0040 1A60     		str	r2, [r3]
 151              	.L7:
  69:../source/queue.c **** 	}
  70:../source/queue.c **** 
  71:../source/queue.c **** 	return num_Of_Events;
 152              		.loc 1 71 0
 153 0042 044B     		ldr	r3, .L8
 154 0044 1B78     		ldrb	r3, [r3]	@ zero_extendqisi2
 155 0046 5BB2     		sxtb	r3, r3
 156              	.L6:
  72:../source/queue.c **** 
  73:../source/queue.c **** }
 157              		.loc 1 73 0
 158 0048 1846     		mov	r0, r3
 159 004a 0C37     		adds	r7, r7, #12
 160              		.cfi_def_cfa_offset 4
 161 004c BD46     		mov	sp, r7
 162              		.cfi_def_cfa_register 13
 163              		@ sp needed
 164 004e 5DF8047B 		ldr	r7, [sp], #4
 165              		.cfi_restore 7
 166              		.cfi_def_cfa_offset 0
 167 0052 7047     		bx	lr
 168              	.L9:
 169              		.align	2
 170              	.L8:
 171 0054 00000000 		.word	num_Of_Events
 172 0058 00000000 		.word	pin
 173 005c 0F000000 		.word	queue+15
 174 0060 00000000 		.word	queue
 175              		.cfi_endproc
 176              	.LFE124:
 178              		.section	.text.pull_Queue_Element,"ax",%progbits
 179              		.align	1
 180              		.global	pull_Queue_Element
 181              		.syntax unified
 182              		.thumb
 183              		.thumb_func
 184              		.fpu fpv4-sp-d16
 186              	pull_Queue_Element:
 187              	.LFB125:
  74:../source/queue.c **** 
  75:../source/queue.c **** /**
  76:../source/queue.c ****  * @brief Pulls the earliest event from the queue
  77:../source/queue.c ****  * @return Event_Type variable with the current event if no OVERFLOW is detected.
  78:../source/queue.c ****  */
  79:../source/queue.c **** uint8_t pull_Queue_Element(void)
  80:../source/queue.c **** {
 188              		.loc 1 80 0
 189              		.cfi_startproc
 190              		@ args = 0, pretend = 0, frame = 8
 191              		@ frame_needed = 1, uses_anonymous_args = 0
 192              		@ link register save eliminated.
 193 0000 80B4     		push	{r7}
 194              		.cfi_def_cfa_offset 4
 195              		.cfi_offset 7, -4
 196 0002 83B0     		sub	sp, sp, #12
 197              		.cfi_def_cfa_offset 16
 198 0004 00AF     		add	r7, sp, #0
 199              		.cfi_def_cfa_register 7
  81:../source/queue.c **** 	uint8_t event = *pout;
 200              		.loc 1 81 0
 201 0006 124B     		ldr	r3, .L14
 202 0008 1B68     		ldr	r3, [r3]
 203 000a 1B78     		ldrb	r3, [r3]
 204 000c FB71     		strb	r3, [r7, #7]
  82:../source/queue.c **** 
  83:../source/queue.c **** 	if (num_Of_Events == 0)
 205              		.loc 1 83 0
 206 000e 114B     		ldr	r3, .L14+4
 207 0010 1B78     		ldrb	r3, [r3]	@ zero_extendqisi2
 208 0012 002B     		cmp	r3, #0
 209 0014 01D1     		bne	.L11
  84:../source/queue.c **** 	{
  85:../source/queue.c **** 		return NONE_EV;
 210              		.loc 1 85 0
 211 0016 0023     		movs	r3, #0
 212 0018 13E0     		b	.L12
 213              	.L11:
  86:../source/queue.c **** 	}
  87:../source/queue.c **** 
  88:../source/queue.c **** 	num_Of_Events--;
 214              		.loc 1 88 0
 215 001a 0E4B     		ldr	r3, .L14+4
 216 001c 1B78     		ldrb	r3, [r3]	@ zero_extendqisi2
 217 001e 013B     		subs	r3, r3, #1
 218 0020 DAB2     		uxtb	r2, r3
 219 0022 0C4B     		ldr	r3, .L14+4
 220 0024 1A70     		strb	r2, [r3]
  89:../source/queue.c **** 	pout++;
 221              		.loc 1 89 0
 222 0026 0A4B     		ldr	r3, .L14
 223 0028 1B68     		ldr	r3, [r3]
 224 002a 0133     		adds	r3, r3, #1
 225 002c 084A     		ldr	r2, .L14
 226 002e 1360     		str	r3, [r2]
  90:../source/queue.c **** 
  91:../source/queue.c **** 	if (pout == MAX_NUMBER_OF_EVENTS + queue)
 227              		.loc 1 91 0
 228 0030 074B     		ldr	r3, .L14
 229 0032 1B68     		ldr	r3, [r3]
 230 0034 084A     		ldr	r2, .L14+8
 231 0036 9342     		cmp	r3, r2
 232 0038 02D1     		bne	.L13
  92:../source/queue.c **** 	{
  93:../source/queue.c **** 		pout = queue;
 233              		.loc 1 93 0
 234 003a 054B     		ldr	r3, .L14
 235 003c 074A     		ldr	r2, .L14+12
 236 003e 1A60     		str	r2, [r3]
 237              	.L13:
  94:../source/queue.c **** 	}
  95:../source/queue.c **** 
  96:../source/queue.c **** 	return event;
 238              		.loc 1 96 0
 239 0040 FB79     		ldrb	r3, [r7, #7]	@ zero_extendqisi2
 240              	.L12:
  97:../source/queue.c **** 
  98:../source/queue.c **** }
 241              		.loc 1 98 0
 242 0042 1846     		mov	r0, r3
 243 0044 0C37     		adds	r7, r7, #12
 244              		.cfi_def_cfa_offset 4
 245 0046 BD46     		mov	sp, r7
 246              		.cfi_def_cfa_register 13
 247              		@ sp needed
 248 0048 5DF8047B 		ldr	r7, [sp], #4
 249              		.cfi_restore 7
 250              		.cfi_def_cfa_offset 0
 251 004c 7047     		bx	lr
 252              	.L15:
 253 004e 00BF     		.align	2
 254              	.L14:
 255 0050 00000000 		.word	pout
 256 0054 00000000 		.word	num_Of_Events
 257 0058 0F000000 		.word	queue+15
 258 005c 00000000 		.word	queue
 259              		.cfi_endproc
 260              	.LFE125:
 262              		.section	.text.get_Queue_Status,"ax",%progbits
 263              		.align	1
 264              		.global	get_Queue_Status
 265              		.syntax unified
 266              		.thumb
 267              		.thumb_func
 268              		.fpu fpv4-sp-d16
 270              	get_Queue_Status:
 271              	.LFB126:
  99:../source/queue.c **** 
 100:../source/queue.c **** 
 101:../source/queue.c **** /**
 102:../source/queue.c ****  * @brief Gets the status of the queue
 103:../source/queue.c ****  * @return Returns the number of pending events in the queue
 104:../source/queue.c ****  */
 105:../source/queue.c **** uint8_t get_Queue_Status()
 106:../source/queue.c **** {
 272              		.loc 1 106 0
 273              		.cfi_startproc
 274              		@ args = 0, pretend = 0, frame = 0
 275              		@ frame_needed = 1, uses_anonymous_args = 0
 276              		@ link register save eliminated.
 277 0000 80B4     		push	{r7}
 278              		.cfi_def_cfa_offset 4
 279              		.cfi_offset 7, -4
 280 0002 00AF     		add	r7, sp, #0
 281              		.cfi_def_cfa_register 7
 107:../source/queue.c **** 	return num_Of_Events;
 282              		.loc 1 107 0
 283 0004 034B     		ldr	r3, .L18
 284 0006 1B78     		ldrb	r3, [r3]	@ zero_extendqisi2
 108:../source/queue.c **** }
 285              		.loc 1 108 0
 286 0008 1846     		mov	r0, r3
 287 000a BD46     		mov	sp, r7
 288              		.cfi_def_cfa_register 13
 289              		@ sp needed
 290 000c 5DF8047B 		ldr	r7, [sp], #4
 291              		.cfi_restore 7
 292              		.cfi_def_cfa_offset 0
 293 0010 7047     		bx	lr
 294              	.L19:
 295 0012 00BF     		.align	2
 296              	.L18:
 297 0014 00000000 		.word	num_Of_Events
 298              		.cfi_endproc
 299              	.LFE126:
 301              		.text
 302              	.Letext0:
 303              		.file 2 "c:\\nxp\\mcuxpressoide_10.2.0_759\\ide\\tools\\redlib\\include\\sys\\libconfig-arm.h"
 304              		.file 3 "c:\\nxp\\mcuxpressoide_10.2.0_759\\ide\\tools\\redlib\\include\\stdint.h"
 305              		.file 4 "C:\\Users\\lucia\\OneDrive\\Documents\\2C2023\\Labo_de_Micros\\repo\\Micros-Grupo-5\\TPS\
 306              		.file 5 "C:\\Users\\lucia\\OneDrive\\Documents\\2C2023\\Labo_de_Micros\\repo\\Micros-Grupo-5\\TPS\